; Function Attrs: nofree norecurse nosync nounwind memory(argmem: readwrite) uwtable
define internal void @gaussian_kernel(float noundef %0, float noundef %1, ptr noundef readonly captures(none) %2, ptr noundef writeonly captures(none) %3, ptr noundef writeonly captures(none) %4, ptr noundef writeonly captures(none) %5) #1 {
  %7 = alloca [4 x float], align 16
  %8 = alloca [4 x float], align 16
  call void @llvm.lifetime.start.p0(i64 16, ptr nonnull %7) #16
  call void @llvm.lifetime.start.p0(i64 16, ptr nonnull %8) #16
  br label %9

9:                                                ; preds = %24, %6
  %indvars.iv.i = phi i64 [ 0, %6 ], [ %indvars.iv.next.i, %24 ]
  %.02024.i = phi float [ 0.000000e+00, %6 ], [ %26, %24 ]
  %10 = trunc i64 %indvars.iv.i to i32
  %11 = add i32 %10, -1
  %12 = sitofp i32 %11 to float
  %13 = fsub nsz float %0, %12
  %14 = fcmp nsz oeq float %13, 0.000000e+00
  br i1 %14, label %24, label %15

15:                                               ; preds = %9
  %16 = fmul nsz float %13, -2.000000e+00
  %17 = fmul nsz float %13, %16
  %18 = tail call nsz float @llvm.exp.f32(float %17)
  %19 = fneg nsz float %13
  %20 = fmul nsz float %13, %19
  %21 = fmul nsz float %20, 5.000000e-01
  %22 = tail call nsz float @llvm.exp.f32(float %21)
  %23 = fmul nsz float %18, %22
  br label %24

24:                                               ; preds = %15, %9
  %.sink.i = phi float [ %23, %15 ], [ 1.000000e+00, %9 ]
  %25 = getelementptr inbounds nuw float, ptr %7, i64 %indvars.iv.i
  store float %.sink.i, ptr %25, align 4, !tbaa !49
  %26 = fadd nsz float %.02024.i, %.sink.i
  %indvars.iv.next.i = add nuw nsw i64 %indvars.iv.i, 1
  %exitcond.not.i = icmp eq i64 %indvars.iv.next.i, 4
  br i1 %exitcond.not.i, label %.preheader.i, label %9, !llvm.loop !171

.preheader.i:                                     ; preds = %24, %.preheader.i
  %indvars.iv27.i = phi i64 [ %indvars.iv.next28.i, %.preheader.i ], [ 0, %24 ]
  %27 = getelementptr inbounds nuw float, ptr %7, i64 %indvars.iv27.i
  %28 = load float, ptr %27, align 4, !tbaa !49
  %29 = fdiv nsz float %28, %26
  store float %29, ptr %27, align 4, !tbaa !49
  %indvars.iv.next28.i = add nuw nsw i64 %indvars.iv27.i, 1
  %exitcond30.not.i = icmp eq i64 %indvars.iv.next28.i, 4
  br i1 %exitcond30.not.i, label %calculate_gaussian_coeffs.exit, label %.preheader.i, !llvm.loop !172

calculate_gaussian_coeffs.exit:                   ; preds = %.preheader.i, %44
  %indvars.iv.i23 = phi i64 [ %indvars.iv.next.i26, %44 ], [ 0, %.preheader.i ]
  %.02024.i24 = phi float [ %46, %44 ], [ 0.000000e+00, %.preheader.i ]
  %30 = trunc i64 %indvars.iv.i23 to i32
  %31 = add i32 %30, -1
  %32 = sitofp i32 %31 to float
  %33 = fsub nsz float %1, %32
  %34 = fcmp nsz oeq float %33, 0.000000e+00
  br i1 %34, label %44, label %35

35:                                               ; preds = %calculate_gaussian_coeffs.exit
  %36 = fmul nsz float %33, -2.000000e+00
  %37 = fmul nsz float %33, %36
  %38 = tail call nsz float @llvm.exp.f32(float %37)
  %39 = fneg nsz float %33
  %40 = fmul nsz float %33, %39
  %41 = fmul nsz float %40, 5.000000e-01
  %42 = tail call nsz float @llvm.exp.f32(float %41)
  %43 = fmul nsz float %38, %42
  br label %44

44:                                               ; preds = %35, %calculate_gaussian_coeffs.exit
  %.sink.i25 = phi float [ %43, %35 ], [ 1.000000e+00, %calculate_gaussian_coeffs.exit ]
  %45 = getelementptr inbounds nuw float, ptr %8, i64 %indvars.iv.i23
  store float %.sink.i25, ptr %45, align 4, !tbaa !49
  %46 = fadd nsz float %.02024.i24, %.sink.i25
  %indvars.iv.next.i26 = add nuw nsw i64 %indvars.iv.i23, 1
  %exitcond.not.i27 = icmp eq i64 %indvars.iv.next.i26, 4
  br i1 %exitcond.not.i27, label %.preheader.i28, label %calculate_gaussian_coeffs.exit, !llvm.loop !171

.preheader.i28:                                   ; preds = %44, %.preheader.i28
  %indvars.iv27.i29 = phi i64 [ %indvars.iv.next28.i30, %.preheader.i28 ], [ 0, %44 ]
  %47 = getelementptr inbounds nuw float, ptr %8, i64 %indvars.iv27.i29
  %48 = load float, ptr %47, align 4, !tbaa !49
  %49 = fdiv nsz float %48, %46
  store float %49, ptr %47, align 4, !tbaa !49
  %indvars.iv.next28.i30 = add nuw nsw i64 %indvars.iv27.i29, 1
  %exitcond30.not.i31 = icmp eq i64 %indvars.iv.next28.i30, 4
  br i1 %exitcond30.not.i31, label %calculate_gaussian_coeffs.exit32.preheader, label %.preheader.i28, !llvm.loop !172

calculate_gaussian_coeffs.exit32.preheader:       ; preds = %.preheader.i28
  %50 = getelementptr inbounds nuw i8, ptr %2, i64 32
  br label %.preheader

.preheader:                                       ; preds = %calculate_gaussian_coeffs.exit32.preheader, %calculate_gaussian_coeffs.exit32
  %indvars.iv38 = phi i64 [ 0, %calculate_gaussian_coeffs.exit32.preheader ], [ %indvars.iv.next39, %calculate_gaussian_coeffs.exit32 ]
  %51 = shl nuw nsw i64 %indvars.iv38, 2
  %52 = getelementptr inbounds nuw [4 x float], ptr %8, i64 0, i64 %indvars.iv38
  %53 = load float, ptr %52, align 4, !tbaa !49
  br label %55

54:                                               ; preds = %calculate_gaussian_coeffs.exit32
  call void @llvm.lifetime.end.p0(i64 16, ptr nonnull %8) #16
  call void @llvm.lifetime.end.p0(i64 16, ptr nonnull %7) #16
  ret void

calculate_gaussian_coeffs.exit32:                 ; preds = %55
  %indvars.iv.next39 = add nuw nsw i64 %indvars.iv38, 1
  %exitcond41.not = icmp eq i64 %indvars.iv.next39, 4
  br i1 %exitcond41.not, label %54, label %.preheader, !llvm.loop !173

55:                                               ; preds = %.preheader, %55
  %indvars.iv = phi i64 [ 0, %.preheader ], [ %indvars.iv.next, %55 ]
  %56 = getelementptr inbounds nuw [4 x [4 x i16]], ptr %2, i64 0, i64 %indvars.iv38, i64 %indvars.iv
  %57 = load i16, ptr %56, align 2, !tbaa !15
  %58 = add nuw nsw i64 %indvars.iv, %51
  %59 = getelementptr inbounds nuw i16, ptr %3, i64 %58
  store i16 %57, ptr %59, align 2, !tbaa !15
  %60 = getelementptr inbounds nuw [4 x [4 x i16]], ptr %50, i64 0, i64 %indvars.iv38, i64 %indvars.iv
  %61 = load i16, ptr %60, align 2, !tbaa !15
  %62 = getelementptr inbounds nuw i16, ptr %4, i64 %58
  store i16 %61, ptr %62, align 2, !tbaa !15
  %63 = getelementptr inbounds nuw [4 x float], ptr %7, i64 0, i64 %indvars.iv
  %64 = load float, ptr %63, align 4, !tbaa !49
  %65 = fmul nsz float %64, %53
  %66 = fmul nsz float %65, 1.638500e+04
  %67 = tail call i64 @llvm.lrint.i64.f32(float %66)
  %68 = trunc i64 %67 to i16
  %69 = getelementptr inbounds nuw i16, ptr %5, i64 %58
  store i16 %68, ptr %69, align 2, !tbaa !15
  %indvars.iv.next = add nuw nsw i64 %indvars.iv, 1
  %exitcond.not = icmp eq i64 %indvars.iv.next, 4
  br i1 %exitcond.not, label %calculate_gaussian_coeffs.exit32, label %55, !llvm.loop !174
}